; Function Attrs: nounwind uwtable
define ptr @ASN1_item_new_ex(ptr noundef %0, ptr noundef %1, ptr noundef %2) local_unnamed_addr #0 {
  %4 = alloca ptr, align 8
  call void @llvm.lifetime.start.p0(i64 8, ptr nonnull %4) #4
  store ptr null, ptr %4, align 8, !tbaa !3
  %5 = call fastcc i32 @asn1_item_embed_new(ptr noundef nonnull %4, ptr noundef %0, i32 noundef 0, ptr noundef %1, ptr noundef %2)
  %.not = icmp eq i32 %5, 0
  %6 = load ptr, ptr %4, align 8
  %.0 = select i1 %.not, ptr null, ptr %6
  call void @llvm.lifetime.end.p0(i64 8, ptr nonnull %4) #4
  ret ptr %.0
}